; ModuleID = '38/1737.c'
source_filename = "38/1737.c"
target datalayout = "e-m:e-p270:32:32-p271:32:32-p272:64:64-i64:64-f80:128-n8:16:32:64-S128"
target triple = "x86_64-pc-linux-gnu"

@.str = private unnamed_addr constant [3 x i8] c"%d\00", align 1
@.str.1 = private unnamed_addr constant [4 x i8] c"%lf\00", align 1
@.str.2 = private unnamed_addr constant [7 x i8] c"%.5lf\0A\00", align 1

; Function Attrs: noinline nounwind uwtable
define dso_local i32 @main() #0 {
  %1 = alloca i32, align 4
  %2 = alloca i32, align 4
  %3 = alloca i32, align 4
  %4 = alloca i32, align 4
  %5 = alloca double, align 8
  %6 = alloca double, align 8
  %7 = alloca [100 x i32], align 16
  %8 = alloca [100 x [1000 x double]], align 16
  %9 = alloca [100 x double], align 16
  %10 = alloca [100 x double], align 16
  store i32 0, i32* %1, align 4
  store double 0.000000e+00, double* %5, align 8
  store double 0.000000e+00, double* %6, align 8
  %11 = call i32 (i8*, ...) @__isoc99_scanf(i8* getelementptr inbounds ([3 x i8], [3 x i8]* @.str, i64 0, i64 0), i32* %2)
  store i32 0, i32* %3, align 4
  br label %12

12:                                               ; preds = %59, %0
  %13 = load i32, i32* %3, align 4
  %14 = load i32, i32* %2, align 4
  %15 = icmp slt i32 %13, %14
  br i1 %15, label %16, label %62

16:                                               ; preds = %12
  %17 = load i32, i32* %3, align 4
  %18 = sext i32 %17 to i64
  %19 = getelementptr inbounds [100 x i32], [100 x i32]* %7, i64 0, i64 %18
  %20 = call i32 (i8*, ...) @__isoc99_scanf(i8* getelementptr inbounds ([3 x i8], [3 x i8]* @.str, i64 0, i64 0), i32* %19)
  store i32 0, i32* %4, align 4
  br label %21

21:                                               ; preds = %45, %16
  %22 = load i32, i32* %4, align 4
  %23 = load i32, i32* %3, align 4
  %24 = sext i32 %23 to i64
  %25 = getelementptr inbounds [100 x i32], [100 x i32]* %7, i64 0, i64 %24
  %26 = load i32, i32* %25, align 4
  %27 = icmp slt i32 %22, %26
  br i1 %27, label %28, label %48

28:                                               ; preds = %21
  %29 = load i32, i32* %3, align 4
  %30 = sext i32 %29 to i64
  %31 = getelementptr inbounds [100 x [1000 x double]], [100 x [1000 x double]]* %8, i64 0, i64 %30
  %32 = load i32, i32* %4, align 4
  %33 = sext i32 %32 to i64
  %34 = getelementptr inbounds [1000 x double], [1000 x double]* %31, i64 0, i64 %33
  %35 = call i32 (i8*, ...) @__isoc99_scanf(i8* getelementptr inbounds ([4 x i8], [4 x i8]* @.str.1, i64 0, i64 0), double* %34)
  %36 = load i32, i32* %3, align 4
  %37 = sext i32 %36 to i64
  %38 = getelementptr inbounds [100 x [1000 x double]], [100 x [1000 x double]]* %8, i64 0, i64 %37
  %39 = load i32, i32* %4, align 4
  %40 = sext i32 %39 to i64
  %41 = getelementptr inbounds [1000 x double], [1000 x double]* %38, i64 0, i64 %40
  %42 = load double, double* %41, align 8
  %43 = load double, double* %5, align 8
  %44 = fadd double %43, %42
  store double %44, double* %5, align 8
  br label %45

45:                                               ; preds = %28
  %46 = load i32, i32* %4, align 4
  %47 = add nsw i32 %46, 1
  store i32 %47, i32* %4, align 4
  br label %21

48:                                               ; preds = %21
  %49 = load double, double* %5, align 8
  %50 = load i32, i32* %3, align 4
  %51 = sext i32 %50 to i64
  %52 = getelementptr inbounds [100 x i32], [100 x i32]* %7, i64 0, i64 %51
  %53 = load i32, i32* %52, align 4
  %54 = sitofp i32 %53 to double
  %55 = fdiv double %49, %54
  %56 = load i32, i32* %3, align 4
  %57 = sext i32 %56 to i64
  %58 = getelementptr inbounds [100 x double], [100 x double]* %9, i64 0, i64 %57
  store double %55, double* %58, align 8
  store double 0.000000e+00, double* %5, align 8
  br label %59

59:                                               ; preds = %48
  %60 = load i32, i32* %3, align 4
  %61 = add nsw i32 %60, 1
  store i32 %61, i32* %3, align 4
  br label %12

62:                                               ; preds = %12
  store i32 0, i32* %3, align 4
  br label %63

63:                                               ; preds = %118, %62
  %64 = load i32, i32* %3, align 4
  %65 = load i32, i32* %2, align 4
  %66 = icmp slt i32 %64, %65
  br i1 %66, label %67, label %121

67:                                               ; preds = %63
  store i32 0, i32* %4, align 4
  br label %68

68:                                               ; preds = %103, %67
  %69 = load i32, i32* %4, align 4
  %70 = load i32, i32* %3, align 4
  %71 = sext i32 %70 to i64
  %72 = getelementptr inbounds [100 x i32], [100 x i32]* %7, i64 0, i64 %71
  %73 = load i32, i32* %72, align 4
  %74 = icmp slt i32 %69, %73
  br i1 %74, label %75, label %106

75:                                               ; preds = %68
  %76 = load i32, i32* %3, align 4
  %77 = sext i32 %76 to i64
  %78 = getelementptr inbounds [100 x [1000 x double]], [100 x [1000 x double]]* %8, i64 0, i64 %77
  %79 = load i32, i32* %4, align 4
  %80 = sext i32 %79 to i64
  %81 = getelementptr inbounds [1000 x double], [1000 x double]* %78, i64 0, i64 %80
  %82 = load double, double* %81, align 8
  %83 = load i32, i32* %3, align 4
  %84 = sext i32 %83 to i64
  %85 = getelementptr inbounds [100 x double], [100 x double]* %9, i64 0, i64 %84
  %86 = load double, double* %85, align 8
  %87 = fsub double %82, %86
  %88 = load i32, i32* %3, align 4
  %89 = sext i32 %88 to i64
  %90 = getelementptr inbounds [100 x [1000 x double]], [100 x [1000 x double]]* %8, i64 0, i64 %89
  %91 = load i32, i32* %4, align 4
  %92 = sext i32 %91 to i64
  %93 = getelementptr inbounds [1000 x double], [1000 x double]* %90, i64 0, i64 %92
  %94 = load double, double* %93, align 8
  %95 = load i32, i32* %3, align 4
  %96 = sext i32 %95 to i64
  %97 = getelementptr inbounds [100 x double], [100 x double]* %9, i64 0, i64 %96
  %98 = load double, double* %97, align 8
  %99 = fsub double %94, %98
  %100 = fmul double %87, %99
  %101 = load double, double* %6, align 8
  %102 = fadd double %101, %100
  store double %102, double* %6, align 8
  br label %103

103:                                              ; preds = %75
  %104 = load i32, i32* %4, align 4
  %105 = add nsw i32 %104, 1
  store i32 %105, i32* %4, align 4
  br label %68

106:                                              ; preds = %68
  %107 = load double, double* %6, align 8
  %108 = load i32, i32* %3, align 4
  %109 = sext i32 %108 to i64
  %110 = getelementptr inbounds [100 x i32], [100 x i32]* %7, i64 0, i64 %109
  %111 = load i32, i32* %110, align 4
  %112 = sitofp i32 %111 to double
  %113 = fdiv double %107, %112
  %114 = call double @sqrt(double %113) #3
  %115 = load i32, i32* %3, align 4
  %116 = sext i32 %115 to i64
  %117 = getelementptr inbounds [100 x double], [100 x double]* %10, i64 0, i64 %116
  store double %114, double* %117, align 8
  store double 0.000000e+00, double* %6, align 8
  br label %118

118:                                              ; preds = %106
  %119 = load i32, i32* %3, align 4
  %120 = add nsw i32 %119, 1
  store i32 %120, i32* %3, align 4
  br label %63

121:                                              ; preds = %63
  store i32 0, i32* %3, align 4
  br label %122

122:                                              ; preds = %132, %121
  %123 = load i32, i32* %3, align 4
  %124 = load i32, i32* %2, align 4
  %125 = icmp slt i32 %123, %124
  br i1 %125, label %126, label %135

126:                                              ; preds = %122
  %127 = load i32, i32* %3, align 4
  %128 = sext i32 %127 to i64
  %129 = getelementptr inbounds [100 x double], [100 x double]* %10, i64 0, i64 %128
  %130 = load double, double* %129, align 8
  %131 = call i32 (i8*, ...) @printf(i8* getelementptr inbounds ([7 x i8], [7 x i8]* @.str.2, i64 0, i64 0), double %130)
  br label %132

132:                                              ; preds = %126
  %133 = load i32, i32* %3, align 4
  %134 = add nsw i32 %133, 1
  store i32 %134, i32* %3, align 4
  br label %122

135:                                              ; preds = %122
  ret i32 0
}

declare dso_local i32 @__isoc99_scanf(i8*, ...) #1

; Function Attrs: nounwind
declare dso_local double @sqrt(double) #2

declare dso_local i32 @printf(i8*, ...) #1


!llvm.module.flags = !{!0}
!llvm.ident = !{!1}

!0 = !{i32 1, !"wchar_size", i32 4}
!1 = !{!"clang version 10.0.0-4ubuntu1 "}
